target datalayout = "e-m:e-p270:32:32-p271:32:32-p272:64:64-i64:64-i128:128-f80:128-n8:16:32:64-S128"
target triple = "x86_64-pc-linux-gnu"

%struct.cpool = type { %struct.Curl_hash, i64, i64, i64, %struct.curltime, %struct.Curl_llist, ptr, ptr, ptr, ptr, i8 }
%struct.Curl_hash = type { ptr, ptr, ptr, ptr, i64, i64 }
%struct.curltime = type { i64, i32 }
%struct.Curl_llist = type { ptr, ptr, ptr, i64 }
%struct.Curl_llist_node = type { ptr, ptr, ptr, ptr }
%struct.easy_pollset = type { [5 x i32], i32, [5 x i8] }
%struct.ssl_primary_config = type { ptr, ptr, ptr, ptr, ptr, ptr, ptr, ptr, ptr, ptr, ptr, ptr, i8, i32, i8, i8 }
%struct.dynbuf = type { ptr, i64, i64, i64 }
%struct.ip_quadruple = type { [46 x i8], [46 x i8], i32, i32 }
%struct.cpool_bundle = type { %struct.Curl_llist, i64, [1 x ptr] }
%struct.connectdata = type { %struct.Curl_llist_node, ptr, ptr, i64, ptr, i64, ptr, ptr, %struct.hostname, ptr, ptr, %struct.hostname, %struct.proxy_info, %struct.proxy_info, %struct.ip_quadruple, %struct.ip_quadruple, ptr, ptr, ptr, ptr, ptr, %struct.curltime, %struct.curltime, %struct.curltime, [2 x i32], [2 x ptr], [2 x ptr], [2 x ptr], %struct.anon, %struct.easy_pollset, %struct.ssl_primary_config, %struct.ssl_primary_config, %struct.ConnectBits, ptr, ptr, %struct.curltime, i32, i32, %struct.Curl_llist, i32, i32, %struct.ntlmdata, %struct.ntlmdata, %union.anon.1, ptr, i16, i32, i32, i32, i32, i16, i16, i8, i8, i8, i8, i8, i8, i8 }
%struct.hostname = type { ptr, ptr, ptr, ptr }
%struct.proxy_info = type { %struct.hostname, i32, i8, ptr, ptr }
%struct.anon = type { [2 x %struct.curltime], i32 }
%struct.ConnectBits = type { i64 }
%struct.ntlmdata = type { i32, [8 x i8], i32, ptr }
%union.anon.1 = type { %struct.ftp_conn }
%struct.ftp_conn = type { %struct.pingpong, ptr, ptr, ptr, ptr, ptr, ptr, ptr, i8, i64, ptr, i64, i32, i32, i32, i32, i32, i16, i8, i8, i8, i8, i8 }
%struct.pingpong = type { i64, i8, ptr, i64, i64, %struct.curltime, i64, %struct.dynbuf, %struct.dynbuf, i64, i64, ptr, ptr }
%struct.Curl_hash_iterator = type { ptr, i64, ptr }
%struct.Curl_hash_element = type { %struct.Curl_llist_node, ptr, ptr, i64, [1 x i8] }

; Function Attrs: nounwind uwtable
define internal ptr @cpool_get_oldest_idle(ptr noundef %0) #0 {
  %2 = alloca ptr, align 8
  %3 = alloca %struct.Curl_hash_iterator, align 8
  %4 = alloca ptr, align 8
  %5 = alloca ptr, align 8
  %6 = alloca ptr, align 8
  %7 = alloca ptr, align 8
  %8 = alloca %struct.curltime, align 8
  %9 = alloca i64, align 8
  %10 = alloca i64, align 8
  %11 = alloca %struct.curltime, align 8
  %12 = alloca ptr, align 8
  store ptr %0, ptr %2, align 8, !tbaa !4
  call void @llvm.lifetime.start.p0(i64 24, ptr %3) #6
  call void @llvm.lifetime.start.p0(i64 8, ptr %4) #6
  call void @llvm.lifetime.start.p0(i64 8, ptr %5) #6
  call void @llvm.lifetime.start.p0(i64 8, ptr %6) #6
  store ptr null, ptr %6, align 8, !tbaa !93
  call void @llvm.lifetime.start.p0(i64 8, ptr %7) #6
  call void @llvm.lifetime.start.p0(i64 16, ptr %8) #6
  call void @llvm.lifetime.start.p0(i64 8, ptr %9) #6
  store i64 -1, ptr %9, align 8, !tbaa !14
  call void @llvm.lifetime.start.p0(i64 8, ptr %10) #6
  call void @llvm.lifetime.start.p0(i64 16, ptr %11) #6
  %13 = call { i64, i32 } @Curl_now()
  %14 = getelementptr inbounds nuw { i64, i32 }, ptr %11, i32 0, i32 0
  %15 = extractvalue { i64, i32 } %13, 0
  store i64 %15, ptr %14, align 8
  %16 = getelementptr inbounds nuw { i64, i32 }, ptr %11, i32 0, i32 1
  %17 = extractvalue { i64, i32 } %13, 1
  store i32 %17, ptr %16, align 8
  call void @llvm.memcpy.p0.p0.i64(ptr align 8 %8, ptr align 8 %11, i64 16, i1 false), !tbaa.struct !122
  call void @llvm.lifetime.end.p0(i64 16, ptr %11) #6
  %18 = load ptr, ptr %2, align 8, !tbaa !4
  %19 = getelementptr inbounds nuw %struct.cpool, ptr %18, i32 0, i32 0
  call void @Curl_hash_start_iterate(ptr noundef %19, ptr noundef %3)
  %20 = call ptr @Curl_hash_next_element(ptr noundef %3)
  store ptr %20, ptr %5, align 8, !tbaa !133
  br label %21

21:                                               ; preds = %79, %1
  %22 = load ptr, ptr %5, align 8, !tbaa !133
  %23 = icmp ne ptr %22, null
  br i1 %23, label %24, label %81

24:                                               ; preds = %21
  call void @llvm.lifetime.start.p0(i64 8, ptr %12) #6
  %25 = load ptr, ptr %5, align 8, !tbaa !133
  %26 = getelementptr inbounds nuw %struct.Curl_hash_element, ptr %25, i32 0, i32 1
  %27 = load ptr, ptr %26, align 8, !tbaa !135
  store ptr %27, ptr %7, align 8, !tbaa !107
  %28 = load ptr, ptr %7, align 8, !tbaa !107
  %29 = getelementptr inbounds nuw %struct.cpool_bundle, ptr %28, i32 0, i32 0
  %30 = call ptr @Curl_llist_head(ptr noundef %29)
  store ptr %30, ptr %4, align 8, !tbaa !123
  br label %31

31:                                               ; preds = %75, %24
  %32 = load ptr, ptr %4, align 8, !tbaa !123
  %33 = icmp ne ptr %32, null
  br i1 %33, label %34, label %78

34:                                               ; preds = %31
  %35 = load ptr, ptr %4, align 8, !tbaa !123
  %36 = call ptr @Curl_node_elem(ptr noundef %35)
  store ptr %36, ptr %12, align 8, !tbaa !93
  %37 = load ptr, ptr %12, align 8, !tbaa !93
  %38 = getelementptr inbounds nuw %struct.connectdata, ptr %37, i32 0, i32 38
  %39 = call i64 @Curl_llist_count(ptr noundef %38)
  %40 = icmp ne i64 %39, 0
  br i1 %40, label %55, label %41

41:                                               ; preds = %34
  %42 = load ptr, ptr %12, align 8, !tbaa !93
  %43 = getelementptr inbounds nuw %struct.connectdata, ptr %42, i32 0, i32 32
  %44 = load i64, ptr %43, align 8
  %45 = lshr i64 %44, 5
  %46 = and i64 %45, 1
  %47 = trunc i64 %46 to i32
  %48 = icmp ne i32 %47, 0
  br i1 %48, label %55, label %49

49:                                               ; preds = %41
  %50 = load ptr, ptr %12, align 8, !tbaa !93
  %51 = getelementptr inbounds nuw %struct.connectdata, ptr %50, i32 0, i32 57
  %52 = load i8, ptr %51, align 1, !tbaa !137
  %53 = zext i8 %52 to i32
  %54 = icmp ne i32 %53, 0
  br i1 %54, label %55, label %56

55:                                               ; preds = %49, %41, %34
  br label %75

56:                                               ; preds = %49
  %57 = load ptr, ptr %12, align 8, !tbaa !93
  %58 = getelementptr inbounds nuw %struct.connectdata, ptr %57, i32 0, i32 23
  %59 = getelementptr inbounds nuw { i64, i32 }, ptr %8, i32 0, i32 0
  %60 = load i64, ptr %59, align 8
  %61 = getelementptr inbounds nuw { i64, i32 }, ptr %8, i32 0, i32 1
  %62 = load i32, ptr %61, align 8
  %63 = getelementptr inbounds nuw { i64, i32 }, ptr %58, i32 0, i32 0
  %64 = load i64, ptr %63, align 8
  %65 = getelementptr inbounds nuw { i64, i32 }, ptr %58, i32 0, i32 1
  %66 = load i32, ptr %65, align 8
  %67 = call i64 @Curl_timediff(i64 %60, i32 %62, i64 %64, i32 %66)
  store i64 %67, ptr %10, align 8, !tbaa !14
  %68 = load i64, ptr %10, align 8, !tbaa !14
  %69 = load i64, ptr %9, align 8, !tbaa !14
  %70 = icmp sgt i64 %68, %69
  br i1 %70, label %71, label %74

71:                                               ; preds = %56
  %72 = load i64, ptr %10, align 8, !tbaa !14
  store i64 %72, ptr %9, align 8, !tbaa !14
  %73 = load ptr, ptr %12, align 8, !tbaa !93
  store ptr %73, ptr %6, align 8, !tbaa !93
  br label %74

74:                                               ; preds = %71, %56
  br label %75

75:                                               ; preds = %74, %55
  %76 = load ptr, ptr %4, align 8, !tbaa !123
  %77 = call ptr @Curl_node_next(ptr noundef %76)
  store ptr %77, ptr %4, align 8, !tbaa !123
  br label %31, !llvm.loop !138

78:                                               ; preds = %31
  call void @llvm.lifetime.end.p0(i64 8, ptr %12) #6
  br label %79

79:                                               ; preds = %78
  %80 = call ptr @Curl_hash_next_element(ptr noundef %3)
  store ptr %80, ptr %5, align 8, !tbaa !133
  br label %21, !llvm.loop !139

81:                                               ; preds = %21
  %82 = load ptr, ptr %6, align 8, !tbaa !93
  call void @llvm.lifetime.end.p0(i64 8, ptr %10) #6
  call void @llvm.lifetime.end.p0(i64 8, ptr %9) #6
  call void @llvm.lifetime.end.p0(i64 16, ptr %8) #6
  call void @llvm.lifetime.end.p0(i64 8, ptr %7) #6
  call void @llvm.lifetime.end.p0(i64 8, ptr %6) #6
  call void @llvm.lifetime.end.p0(i64 8, ptr %5) #6
  call void @llvm.lifetime.end.p0(i64 8, ptr %4) #6
  call void @llvm.lifetime.end.p0(i64 24, ptr %3) #6
  ret ptr %82
}