; Function Attrs: nounwind uwtable
define internal fastcc ptr @cpool_get_oldest_idle(ptr noundef nonnull %0) unnamed_addr #0 {
  %2 = alloca %struct.Curl_hash_iterator, align 8
  call void @llvm.lifetime.start.p0(i64 24, ptr nonnull %2) #7
  %3 = tail call { i64, i32 } @Curl_now() #7
  %4 = extractvalue { i64, i32 } %3, 0
  %5 = extractvalue { i64, i32 } %3, 1
  call void @Curl_hash_start_iterate(ptr noundef nonnull %0, ptr noundef nonnull %2) #7
  %6 = call ptr @Curl_hash_next_element(ptr noundef nonnull %2) #7
  %.not33 = icmp eq ptr %6, null
  br i1 %.not33, label %._crit_edge39, label %.lr.ph38

.lr.ph38:                                         ; preds = %1, %._crit_edge
  %.01736 = phi ptr [ %29, %._crit_edge ], [ %6, %1 ]
  %.01835 = phi ptr [ %.1.lcssa, %._crit_edge ], [ null, %1 ]
  %.01934 = phi i64 [ %.120.lcssa, %._crit_edge ], [ -1, %1 ]
  %7 = getelementptr inbounds nuw i8, ptr %.01736, i64 32
  %8 = load ptr, ptr %7, align 8, !tbaa !92
  %9 = call ptr @Curl_llist_head(ptr noundef %8) #7
  %.not2328 = icmp eq ptr %9, null
  br i1 %.not2328, label %._crit_edge, label %.lr.ph

.lr.ph:                                           ; preds = %.lr.ph38, %27
  %.031 = phi ptr [ %28, %27 ], [ %9, %.lr.ph38 ]
  %.130 = phi ptr [ %.2, %27 ], [ %.01835, %.lr.ph38 ]
  %.12029 = phi i64 [ %.221, %27 ], [ %.01934, %.lr.ph38 ]
  %10 = call ptr @Curl_node_elem(ptr noundef nonnull %.031) #7
  %11 = getelementptr inbounds nuw i8, ptr %10, i64 968
  %12 = call i64 @Curl_llist_count(ptr noundef nonnull %11) #7
  %.not24 = icmp eq i64 %12, 0
  br i1 %.not24, label %13, label %27

13:                                               ; preds = %.lr.ph
  %14 = getelementptr inbounds nuw i8, ptr %10, i64 920
  %15 = load i64, ptr %14, align 8
  %16 = and i64 %15, 32
  %.not25 = icmp eq i64 %16, 0
  br i1 %.not25, label %17, label %27

17:                                               ; preds = %13
  %18 = getelementptr inbounds nuw i8, ptr %10, i64 1373
  %19 = load i8, ptr %18, align 1, !tbaa !136
  %.not26 = icmp eq i8 %19, 0
  br i1 %.not26, label %20, label %27

20:                                               ; preds = %17
  %21 = getelementptr inbounds nuw i8, ptr %10, i64 552
  %22 = load i64, ptr %21, align 8
  %23 = getelementptr inbounds nuw i8, ptr %10, i64 560
  %24 = load i32, ptr %23, align 8
  %25 = call i64 @Curl_timediff(i64 %4, i32 %5, i64 %22, i32 %24) #7
  %26 = icmp sgt i64 %25, %.12029
  %spec.select = call i64 @llvm.smax.i64(i64 %25, i64 %.12029)
  %spec.select27 = select i1 %26, ptr %10, ptr %.130
  br label %27

27:                                               ; preds = %20, %.lr.ph, %13, %17
  %.221 = phi i64 [ %.12029, %.lr.ph ], [ %.12029, %13 ], [ %.12029, %17 ], [ %spec.select, %20 ]
  %.2 = phi ptr [ %.130, %.lr.ph ], [ %.130, %13 ], [ %.130, %17 ], [ %spec.select27, %20 ]
  %28 = call ptr @Curl_node_next(ptr noundef nonnull %.031) #7
  %.not23 = icmp eq ptr %28, null
  br i1 %.not23, label %._crit_edge, label %.lr.ph, !llvm.loop !137

._crit_edge:                                      ; preds = %27, %.lr.ph38
  %.120.lcssa = phi i64 [ %.01934, %.lr.ph38 ], [ %.221, %27 ]
  %.1.lcssa = phi ptr [ %.01835, %.lr.ph38 ], [ %.2, %27 ]
  %29 = call ptr @Curl_hash_next_element(ptr noundef nonnull %2) #7
  %.not = icmp eq ptr %29, null
  br i1 %.not, label %._crit_edge39, label %.lr.ph38, !llvm.loop !138

._crit_edge39:                                    ; preds = %._crit_edge, %1
  %.018.lcssa = phi ptr [ null, %1 ], [ %.1.lcssa, %._crit_edge ]
  call void @llvm.lifetime.end.p0(i64 24, ptr nonnull %2) #7
  ret ptr %.018.lcssa
}